-----BEGIN CERTIFICATE-----
MIIG9zCCBN+gAwIBAgIJAM1FAYFNdvnBMA0GCSqGSIb3DQEBBQUAMIGtMQswCQYD
VQQGEwJVUzERMA8GA1UECBMITWljaGlnYW4xGDAWBgNVBAcTD1JvY2hlc3RlciBI
aWxsczEcMBoGA1UEChMTRWZwb3BoaXMgTmV0d29ya2luZzETMBEGA1UECxMKU2t1
bmt3b3JrczEYMBYGA1UEAxMPRWZwb3BoaXMubmV0IENBMSQwIgYJKoZIhvcNAQkB
FhVlZnBvcGhpc0BlZnBvcGhpcy5uZXQwHhcNMTIwNzEyMTY0ODQwWhcNMzgwMTAx
MTY0ODQwWjCBrTELMAkGA1UEBhMCVVMxETAPBgNVBAgTCE1pY2hpZ2FuMRgwFgYD
VQQHEw9Sb2NoZXN0ZXIgSGlsbHMxHDAaBgNVBAoTE0VmcG9waGlzIE5ldHdvcmtp
bmcxEzARBgNVBAsTClNrdW5rd29ya3MxGDAWBgNVBAMTD0VmcG9waGlzLm5ldCBD
QTEkMCIGCSqGSIb3DQEJARYVZWZwb3BoaXNAZWZwb3BoaXMubmV0MIICIjANBgkq
hkiG9w0BAQEFAAOCAg8AMIICCgKCAgEAwHDjkwhkCdOKTmyTWF5/enpZ01BlcsCA
7OQTB1dupiPAM8R5wn7axMrRFDd8xVhhO7Y5OjEhrSYIOMs3DDc/Cavtg3JUOA9k
T3EklUFmLM0DA/AeN4FYYaXKgvPDwo9RuvPQFdC4XY9b6kpeOmaPBvgdIqvfT9I0
hKgjUpNhHGs3sbAlPBqub1eNIA1AX5MqGAJnMYyuZ2KA4kUYIKj3DmKuuzYhn+r/
NZ76QB0suZhT6issnIj5x4eA3ppKH5UcGy2Q0jFJfGFmfagBPqbIksFkVizT0mkL
KN2jm2eHGKLlIdpSG0gTosVTS8VDREUDN6dik6k7wezApDyyxQJVqL40G4yzG+gb
06KMk0FzGm0w8q9PcUEU1OP1BZL5L5KNdXIKR4ffRQ2Hc3Wrd5HGQhlSZfNCqOu/
NYpEEOPTchsAYAkRnoszDgUpsHJxHY5Ddwqmoi/ohUEhRxjuyTFi98WaO1CT2oW6
3OXZl1JsEbRjazvMAoka4+DbTHRlbECjjj1j7JWgRiy9c7lJuCKWNENHWjt/nX9l
66iT5nY5/2bA4DhXNFe4YcyiKR3yzprnvvdlV5E8pnBv3MS55mwf448umTwKsKWO
To11dl8EMjNQ9CcYPrAKrUIkWaJXs0p8rzL3w5QAOXJ2Or1NC8JWAQ2o4tBELn1f
f8a3FWgIecECAwEAAaOCARYwggESMB0GA1UdDgQWBBQO7BqKwT7Itrqeu2e4i/vT
Pj8wJDCB4gYDVR0jBIHaMIHXgBQO7BqKwT7Itrqeu2e4i/vTPj8wJKGBs6SBsDCB
rTELMAkGA1UEBhMCVVMxETAPBgNVBAgTCE1pY2hpZ2FuMRgwFgYDVQQHEw9Sb2No
ZXN0ZXIgSGlsbHMxHDAaBgNVBAoTE0VmcG9waGlzIE5ldHdvcmtpbmcxEzARBgNV
BAsTClNrdW5rd29ya3MxGDAWBgNVBAMTD0VmcG9waGlzLm5ldCBDQTEkMCIGCSqG
SIb3DQEJARYVZWZwb3BoaXNAZWZwb3BoaXMubmV0ggkAzUUBgU12+cEwDAYDVR0T
BAUwAwEB/zANBgkqhkiG9w0BAQUFAAOCAgEAUlruIo9/LtHzH5CrmXWHKETe4xNA
ulszm4ZbRtAwrM3wzc51VjfcaC52aDEcgcVPx4cimXV/u8JX75f8z7iW2LK8qA8I
qC3G84YRb4hEAOd8cA4pp+AL7lXvVlTSYSq/P3TmtVjZpRDEqwtOsLTvf6FU+ez2
pAoMt0y+/UL3M3OMAAqhkdzIH7e05Ri7oxdGJeuzFU11mE6veXw+7V31XjkaRWrM
7fIuqGZNND8zM2B0qZEcruIJkufVeWXHU//O3WfSIUYrUafTY73eGyw2ND/eQknO
BOqM45LMVKKN2AjIA9Ux6ud6/roYZmpYVHJF4tGLqptL5rhVxEY5O8if1RvFaU9x
cAvkXZC/y+ask6Ry6utx1KsSGnu4m0WjpGoVtBtiyzw66PuH1zHmAunj830wsvow
UYXOd4gHuXRM2E0A4pTjKKF1mIUT/HbaKNOdqcvsiar2c24g+iLwkiI1MwmWepev
zG0otYxxH1XAVTCkyR8/fzYB+RM+rFC5y0TnI8hrFSh3OzQtOqzuz5zQz4PwxS0P
guSJHXLeFOlvwvSXvraAd/H/sVNas0X4nPEXW8XGlpmtW9CDZDmrPheiZmi08QHd
1kxIbMV8tagrrDAv1WTuDQfW8J7NXwMsACWpInMOUk7/CzsmWW6+BcZ+R/UgdVPp
gZrJ6KoPLE0zxe0=
-----END CERTIFICATE-----
Certificate:
    Data:
        Version: 3 (0x2)
        Serial Number: 14791230206030313921 (0xcd4501814d76f9c1)
    Signature Algorithm: sha1WithRSAEncryption
        Issuer: C=US, ST=Michigan, L=Rochester Hills, O=Efpophis Networking, OU=Skunkworks, CN=Efpophis.net CA/emailAddress=efpophis@efpophis.net
        Validity
            Not Before: Jul 12 16:48:40 2012 GMT
            Not After : Jan  1 16:48:40 2038 GMT
        Subject: C=US, ST=Michigan, L=Rochester Hills, O=Efpophis Networking, OU=Skunkworks, CN=Efpophis.net CA/emailAddress=efpophis@efpophis.net
        Subject Public Key Info:
            Public Key Algorithm: rsaEncryption
                Public-Key: (4096 bit)
                Modulus:
                    00:c0:70:e3:93:08:64:09:d3:8a:4e:6c:93:58:5e:
                    7f:7a:7a:59:d3:50:65:72:c0:80:ec:e4:13:07:57:
                    6e:a6:23:c0:33:c4:79:c2:7e:da:c4:ca:d1:14:37:
                    7c:c5:58:61:3b:b6:39:3a:31:21:ad:26:08:38:cb:
                    37:0c:37:3f:09:ab:ed:83:72:54:38:0f:64:4f:71:
                    24:95:41:66:2c:cd:03:03:f0:1e:37:81:58:61:a5:
                    ca:82:f3:c3:c2:8f:51:ba:f3:d0:15:d0:b8:5d:8f:
                    5b:ea:4a:5e:3a:66:8f:06:f8:1d:22:ab:df:4f:d2:
                    34:84:a8:23:52:93:61:1c:6b:37:b1:b0:25:3c:1a:
                    ae:6f:57:8d:20:0d:40:5f:93:2a:18:02:67:31:8c:
                    ae:67:62:80:e2:45:18:20:a8:f7:0e:62:ae:bb:36:
                    21:9f:ea:ff:35:9e:fa:40:1d:2c:b9:98:53:ea:2b:
                    2c:9c:88:f9:c7:87:80:de:9a:4a:1f:95:1c:1b:2d:
                    90:d2:31:49:7c:61:66:7d:a8:01:3e:a6:c8:92:c1:
                    64:56:2c:d3:d2:69:0b:28:dd:a3:9b:67:87:18:a2:
                    e5:21:da:52:1b:48:13:a2:c5:53:4b:c5:43:44:45:
                    03:37:a7:62:93:a9:3b:c1:ec:c0:a4:3c:b2:c5:02:
                    55:a8:be:34:1b:8c:b3:1b:e8:1b:d3:a2:8c:93:41:
                    73:1a:6d:30:f2:af:4f:71:41:14:d4:e3:f5:05:92:
                    f9:2f:92:8d:75:72:0a:47:87:df:45:0d:87:73:75:
                    ab:77:91:c6:42:19:52:65:f3:42:a8:eb:bf:35:8a:
                    44:10:e3:d3:72:1b:00:60:09:11:9e:8b:33:0e:05:
                    29:b0:72:71:1d:8e:43:77:0a:a6:a2:2f:e8:85:41:
                    21:47:18:ee:c9:31:62:f7:c5:9a:3b:50:93:da:85:
                    ba:dc:e5:d9:97:52:6c:11:b4:63:6b:3b:cc:02:89:
                    1a:e3:e0:db:4c:74:65:6c:40:a3:8e:3d:63:ec:95:
                    a0:46:2c:bd:73:b9:49:b8:22:96:34:43:47:5a:3b:
                    7f:9d:7f:65:eb:a8:93:e6:76:39:ff:66:c0:e0:38:
                    57:34:57:b8:61:cc:a2:29:1d:f2:ce:9a:e7:be:f7:
                    65:57:91:3c:a6:70:6f:dc:c4:b9:e6:6c:1f:e3:8f:
                    2e:99:3c:0a:b0:a5:8e:4e:8d:75:76:5f:04:32:33:
                    50:f4:27:18:3e:b0:0a:ad:42:24:59:a2:57:b3:4a:
                    7c:af:32:f7:c3:94:00:39:72:76:3a:bd:4d:0b:c2:
                    56:01:0d:a8:e2:d0:44:2e:7d:5f:7f:c6:b7:15:68:
                    08:79:c1
                Exponent: 65537 (0x10001)
        X509v3 extensions:
            X509v3 Subject Key Identifier: 
                0E:EC:1A:8A:C1:3E:C8:B6:BA:9E:BB:67:B8:8B:FB:D3:3E:3F:30:24
            X509v3 Authority Key Identifier: 
                keyid:0E:EC:1A:8A:C1:3E:C8:B6:BA:9E:BB:67:B8:8B:FB:D3:3E:3F:30:24
                DirName:/C=US/ST=Michigan/L=Rochester Hills/O=Efpophis Networking/OU=Skunkworks/CN=Efpophis.net CA/emailAddress=efpophis@efpophis.net
                serial:CD:45:01:81:4D:76:F9:C1

            X509v3 Basic Constraints: 
                CA:TRUE
    Signature Algorithm: sha1WithRSAEncryption
         52:5a:ee:22:8f:7f:2e:d1:f3:1f:90:ab:99:75:87:28:44:de:
         e3:13:40:ba:5b:33:9b:86:5b:46:d0:30:ac:cd:f0:cd:ce:75:
         56:37:dc:68:2e:76:68:31:1c:81:c5:4f:c7:87:22:99:75:7f:
         bb:c2:57:ef:97:fc:cf:b8:96:d8:b2:bc:a8:0f:08:a8:2d:c6:
         f3:86:11:6f:88:44:00:e7:7c:70:0e:29:a7:e0:0b:ee:55:ef:
         56:54:d2:61:2a:bf:3f:74:e6:b5:58:d9:a5:10:c4:ab:0b:4e:
         b0:b4:ef:7f:a1:54:f9:ec:f6:a4:0a:0c:b7:4c:be:fd:42:f7:
         33:73:8c:00:0a:a1:91:dc:c8:1f:b7:b4:e5:18:bb:a3:17:46:
         25:eb:b3:15:4d:75:98:4e:af:79:7c:3e:ed:5d:f5:5e:39:1a:
         45:6a:cc:ed:f2:2e:a8:66:4d:34:3f:33:33:60:74:a9:91:1c:
         ae:e2:09:92:e7:d5:79:65:c7:53:ff:ce:dd:67:d2:21:46:2b:
         51:a7:d3:63:bd:de:1b:2c:36:34:3f:de:42:49:ce:04:ea:8c:
         e3:92:cc:54:a2:8d:d8:08:c8:03:d5:31:ea:e7:7a:fe:ba:18:
         66:6a:58:54:72:45:e2:d1:8b:aa:9b:4b:e6:b8:55:c4:46:39:
         3b:c8:9f:d5:1b:c5:69:4f:71:70:0b:e4:5d:90:bf:cb:e6:ac:
         93:a4:72:ea:eb:71:d4:ab:12:1a:7b:b8:9b:45:a3:a4:6a:15:
         b4:1b:62:cb:3c:3a:e8:fb:87:d7:31:e6:02:e9:e3:f3:7d:30:
         b2:fa:30:51:85:ce:77:88:07:b9:74:4c:d8:4d:00:e2:94:e3:
         28:a1:75:98:85:13:fc:76:da:28:d3:9d:a9:cb:ec:89:aa:f6:
         73:6e:20:fa:22:f0:92:22:35:33:09:96:7a:97:af:cc:6d:28:
         b5:8c:71:1f:55:c0:55:30:a4:c9:1f:3f:7f:36:01:f9:13:3e:
         ac:50:b9:cb:44:e7:23:c8:6b:15:28:77:3b:34:2d:3a:ac:ee:
         cf:9c:d0:cf:83:f0:c5:2d:0f:82:e4:89:1d:72:de:14:e9:6f:
         c2:f4:97:be:b6:80:77:f1:ff:b1:53:5a:b3:45:f8:9c:f1:17:
         5b:c5:c6:96:99:ad:5b:d0:83:64:39:ab:3e:17:a2:66:68:b4:
         f1:01:dd:d6:4c:48:6c:c5:7c:b5:a8:2b:ac:30:2f:d5:64:ee:
         0d:07:d6:f0:9e:cd:5f:03:2c:00:25:a9:22:73:0e:52:4e:ff:
         0b:3b:26:59:6e:be:05:c6:7e:47:f5:20:75:53:e9:81:9a:c9:
         e8:aa:0f:2c:4d:33:c5:ed
SHA1 Fingerprint=C2:F9:B3:24:84:5A:76:65:A2:5D:D0:83:55:41:E9:8D:90:84:60:64
